; ModuleID = '35/1871.c'
source_filename = "35/1871.c"
target datalayout = "e-m:e-p270:32:32-p271:32:32-p272:64:64-i64:64-f80:128-n8:16:32:64-S128"
target triple = "x86_64-pc-linux-gnu"

@.str = private unnamed_addr constant [6 x i8] c"%d,%d\00", align 1
@.str.1 = private unnamed_addr constant [3 x i8] c"%d\00", align 1
@.str.2 = private unnamed_addr constant [6 x i8] c"%d+%d\00", align 1
@.str.3 = private unnamed_addr constant [3 x i8] c"No\00", align 1

; Function Attrs: noinline nounwind uwtable
define dso_local i32 @main() #0 {
  %1 = alloca i32, align 4
  %2 = alloca i32, align 4
  %3 = alloca i32, align 4
  %4 = alloca i32, align 4
  %5 = alloca i32, align 4
  %6 = alloca [10 x [10 x i32]], align 16
  %7 = alloca i32, align 4
  %8 = alloca i32, align 4
  %9 = alloca i32, align 4
  %10 = alloca i32, align 4
  store i32 0, i32* %1, align 4
  %11 = call i32 (i8*, ...) @__isoc99_scanf(i8* getelementptr inbounds ([6 x i8], [6 x i8]* @.str, i64 0, i64 0), i32* %3, i32* %2)
  store i32 0, i32* %4, align 4
  br label %12

12:                                               ; preds = %33, %0
  %13 = load i32, i32* %4, align 4
  %14 = load i32, i32* %3, align 4
  %15 = icmp slt i32 %13, %14
  br i1 %15, label %16, label %36

16:                                               ; preds = %12
  store i32 0, i32* %5, align 4
  br label %17

17:                                               ; preds = %29, %16
  %18 = load i32, i32* %5, align 4
  %19 = load i32, i32* %2, align 4
  %20 = icmp slt i32 %18, %19
  br i1 %20, label %21, label %32

21:                                               ; preds = %17
  %22 = load i32, i32* %4, align 4
  %23 = sext i32 %22 to i64
  %24 = getelementptr inbounds [10 x [10 x i32]], [10 x [10 x i32]]* %6, i64 0, i64 %23
  %25 = load i32, i32* %5, align 4
  %26 = sext i32 %25 to i64
  %27 = getelementptr inbounds [10 x i32], [10 x i32]* %24, i64 0, i64 %26
  %28 = call i32 (i8*, ...) @__isoc99_scanf(i8* getelementptr inbounds ([3 x i8], [3 x i8]* @.str.1, i64 0, i64 0), i32* %27)
  br label %29

29:                                               ; preds = %21
  %30 = load i32, i32* %5, align 4
  %31 = add nsw i32 %30, 1
  store i32 %31, i32* %5, align 4
  br label %17

32:                                               ; preds = %17
  br label %33

33:                                               ; preds = %32
  %34 = load i32, i32* %4, align 4
  %35 = add nsw i32 %34, 1
  store i32 %35, i32* %4, align 4
  br label %12

36:                                               ; preds = %12
  store i32 0, i32* %9, align 4
  store i32 0, i32* %10, align 4
  store i32 0, i32* %4, align 4
  br label %37

37:                                               ; preds = %122, %36
  %38 = load i32, i32* %4, align 4
  %39 = load i32, i32* %3, align 4
  %40 = icmp slt i32 %38, %39
  br i1 %40, label %41, label %125

41:                                               ; preds = %37
  %42 = load i32, i32* %4, align 4
  %43 = sext i32 %42 to i64
  %44 = getelementptr inbounds [10 x [10 x i32]], [10 x [10 x i32]]* %6, i64 0, i64 %43
  %45 = getelementptr inbounds [10 x i32], [10 x i32]* %44, i64 0, i64 0
  %46 = load i32, i32* %45, align 8
  store i32 %46, i32* %7, align 4
  store i32 1, i32* %5, align 4
  br label %47

47:                                               ; preds = %70, %41
  %48 = load i32, i32* %5, align 4
  %49 = load i32, i32* %2, align 4
  %50 = icmp slt i32 %48, %49
  br i1 %50, label %51, label %73

51:                                               ; preds = %47
  %52 = load i32, i32* %4, align 4
  %53 = sext i32 %52 to i64
  %54 = getelementptr inbounds [10 x [10 x i32]], [10 x [10 x i32]]* %6, i64 0, i64 %53
  %55 = load i32, i32* %5, align 4
  %56 = sext i32 %55 to i64
  %57 = getelementptr inbounds [10 x i32], [10 x i32]* %54, i64 0, i64 %56
  %58 = load i32, i32* %57, align 4
  %59 = load i32, i32* %7, align 4
  %60 = icmp sgt i32 %58, %59
  br i1 %60, label %61, label %69

61:                                               ; preds = %51
  %62 = load i32, i32* %4, align 4
  %63 = sext i32 %62 to i64
  %64 = getelementptr inbounds [10 x [10 x i32]], [10 x [10 x i32]]* %6, i64 0, i64 %63
  %65 = load i32, i32* %5, align 4
  %66 = sext i32 %65 to i64
  %67 = getelementptr inbounds [10 x i32], [10 x i32]* %64, i64 0, i64 %66
  %68 = load i32, i32* %67, align 4
  store i32 %68, i32* %7, align 4
  br label %69

69:                                               ; preds = %61, %51
  br label %70

70:                                               ; preds = %69
  %71 = load i32, i32* %5, align 4
  %72 = add nsw i32 %71, 1
  store i32 %72, i32* %5, align 4
  br label %47

73:                                               ; preds = %47
  store i32 0, i32* %5, align 4
  br label %74

74:                                               ; preds = %91, %73
  %75 = load i32, i32* %5, align 4
  %76 = load i32, i32* %2, align 4
  %77 = icmp slt i32 %75, %76
  br i1 %77, label %78, label %94

78:                                               ; preds = %74
  %79 = load i32, i32* %4, align 4
  %80 = sext i32 %79 to i64
  %81 = getelementptr inbounds [10 x [10 x i32]], [10 x [10 x i32]]* %6, i64 0, i64 %80
  %82 = load i32, i32* %5, align 4
  %83 = sext i32 %82 to i64
  %84 = getelementptr inbounds [10 x i32], [10 x i32]* %81, i64 0, i64 %83
  %85 = load i32, i32* %84, align 4
  %86 = load i32, i32* %7, align 4
  %87 = icmp eq i32 %85, %86
  br i1 %87, label %88, label %90

88:                                               ; preds = %78
  %89 = load i32, i32* %5, align 4
  store i32 %89, i32* %8, align 4
  br label %90

90:                                               ; preds = %88, %78
  br label %91

91:                                               ; preds = %90
  %92 = load i32, i32* %5, align 4
  %93 = add nsw i32 %92, 1
  store i32 %93, i32* %5, align 4
  br label %74

94:                                               ; preds = %74
  store i32 0, i32* %5, align 4
  br label %95

95:                                               ; preds = %111, %94
  %96 = load i32, i32* %5, align 4
  %97 = load i32, i32* %3, align 4
  %98 = icmp slt i32 %96, %97
  br i1 %98, label %99, label %114

99:                                               ; preds = %95
  %100 = load i32, i32* %5, align 4
  %101 = sext i32 %100 to i64
  %102 = getelementptr inbounds [10 x [10 x i32]], [10 x [10 x i32]]* %6, i64 0, i64 %101
  %103 = load i32, i32* %8, align 4
  %104 = sext i32 %103 to i64
  %105 = getelementptr inbounds [10 x i32], [10 x i32]* %102, i64 0, i64 %104
  %106 = load i32, i32* %105, align 4
  %107 = load i32, i32* %7, align 4
  %108 = icmp slt i32 %106, %107
  br i1 %108, label %109, label %110

109:                                              ; preds = %99
  store i32 1, i32* %9, align 4
  br label %114

110:                                              ; preds = %99
  br label %111

111:                                              ; preds = %110
  %112 = load i32, i32* %5, align 4
  %113 = add nsw i32 %112, 1
  store i32 %113, i32* %5, align 4
  br label %95

114:                                              ; preds = %109, %95
  %115 = load i32, i32* %9, align 4
  %116 = icmp eq i32 %115, 0
  br i1 %116, label %117, label %121

117:                                              ; preds = %114
  store i32 1, i32* %10, align 4
  %118 = load i32, i32* %4, align 4
  %119 = load i32, i32* %8, align 4
  %120 = call i32 (i8*, ...) @printf(i8* getelementptr inbounds ([6 x i8], [6 x i8]* @.str.2, i64 0, i64 0), i32 %118, i32 %119)
  br label %125

121:                                              ; preds = %114
  br label %122

122:                                              ; preds = %121
  %123 = load i32, i32* %4, align 4
  %124 = add nsw i32 %123, 1
  store i32 %124, i32* %4, align 4
  br label %37

125:                                              ; preds = %117, %37
  %126 = load i32, i32* %10, align 4
  %127 = icmp eq i32 %126, 0
  br i1 %127, label %128, label %130

128:                                              ; preds = %125
  %129 = call i32 (i8*, ...) @printf(i8* getelementptr inbounds ([3 x i8], [3 x i8]* @.str.3, i64 0, i64 0))
  br label %130

130:                                              ; preds = %128, %125
  %131 = load i32, i32* %1, align 4
  ret i32 %131
}

declare dso_local i32 @__isoc99_scanf(i8*, ...) #1

declare dso_local i32 @printf(i8*, ...) #1


!llvm.module.flags = !{!0}
!llvm.ident = !{!1}

!0 = !{i32 1, !"wchar_size", i32 4}
!1 = !{!"clang version 10.0.0-4ubuntu1 "}
